ccopy_reg
_reconstructor
p1
(c__main__
LogisticRegression
p2
c__builtin__
object
p3
NtRp4
(dp5
S'b'
g1
(ctheano.tensor.sharedvar
TensorSharedVariable
p6
g3
NtRp7
(dp8
S'auto_name'
p9
S'auto_22'
p10
sS'index'
p11
NsS'tag'
p12
g1
(ctheano.gof.utils
scratchpad
p13
g3
NtRp14
(dp15
S'trace'
p16
(lp17
(lp18
(S'full.py'
p19
I758
S'<module>'
p20
S"weights, costs = sgd_optimization_mnist('final')"
tp21
a(S'full.py'
p22
I317
S'sgd_optimization_mnist'
p23
S'classifier = LogisticRegression(input=x, n_in=20*1, n_out=3)'
tp24
a(S'full.py'
p25
I30
S'__init__'
p26
S"), name='b', borrow=True)"
tp27
aasbsS'container'
p28
g1
(ctheano.gof.link
Container
p29
g3
NtRp30
(dp31
S'name'
p32
S'b'
sS'storage'
p33
(lp34
cnumpy.core.multiarray
_reconstruct
p35
(cnumpy
ndarray
p36
(I0
tS'b'
tRp37
(I1
(I3
tcnumpy
dtype
p38
(S'f8'
I0
I1
tRp39
(I3
S'<'
NNNI-1
I-1
I0
tbI00
S'\x9b\xdc\x97&\x85\xdc\xe5\xbf\xe1\xff\xb1\xbb\xd6\x19\xc1\xbf\xaa\\\x84\xd5\xfa"\xea?'
tbasS'strict'
p40
I00
sS'readonly'
p41
I00
sS'type'
p42
g1
(ctheano.tensor.type
TensorType
p43
g3
NtRp44
(dp45
S'broadcastable'
p46
(I00
tp47
sS'dtype'
p48
S'float64'
p49
sS'numpy_dtype'
p50
g39
sS'sparse_grad'
p51
I00
sg32
NsbsS'allow_downcast'
p52
Nsbsg32
S'b'
sS'owner'
p53
Nsg42
g44
sbsS'y_pred'
p54
g1
(ctheano.tensor.var
TensorVariable
p55
g3
NtRp56
(dp57
g9
S'auto_31'
p58
sg11
I1
sg12
g1
(g13
g3
NtRp59
(dp60
g16
(lp61
(lp62
(g19
I758
g20
S"weights, costs = sgd_optimization_mnist('final')"
tp63
a(g22
I317
g23
S'classifier = LogisticRegression(input=x, n_in=20*1, n_out=3)'
tp64
a(g25
I34
g26
S'self.y_pred = T.argmax(self.p_y_given_x, axis=1)'
tp65
aasbsg32
S'argmax'
p66
sg53
g1
(ctheano.gof.graph
Apply
p67
g3
NtRp68
(dp69
S'inputs'
p70
(lp71
g1
(g55
g3
NtRp72
(dp73
g9
S'auto_29'
p74
sg11
I0
sg12
g1
(g13
g3
NtRp75
(dp76
g16
(lp77
(lp78
(g19
I758
g20
S"weights, costs = sgd_optimization_mnist('final')"
tp79
a(g22
I317
g23
S'classifier = LogisticRegression(input=x, n_in=20*1, n_out=3)'
tp80
a(g25
I32
g26
S'self.p_y_given_x = T.nnet.softmax(T.dot(input, self.W) + self.b)'
tp81
aasbsg32
Nsg53
g1
(g67
g3
NtRp82
(dp83
g70
(lp84
g1
(g55
g3
NtRp85
(dp86
g9
S'auto_28'
p87
sg11
I0
sg12
g1
(g13
g3
NtRp88
(dp89
g16
(lp90
(lp91
(g19
I758
g20
S"weights, costs = sgd_optimization_mnist('final')"
tp92
a(g22
I317
g23
S'classifier = LogisticRegression(input=x, n_in=20*1, n_out=3)'
tp93
a(g25
I32
g26
S'self.p_y_given_x = T.nnet.softmax(T.dot(input, self.W) + self.b)'
tp94
aasbsg32
Nsg53
g1
(g67
g3
NtRp95
(dp96
g70
(lp97
g1
(g55
g3
NtRp98
(dp99
g9
S'auto_23'
p100
sg11
I0
sg12
g1
(g13
g3
NtRp101
(dp102
g16
(lp103
(lp104
(g19
I758
g20
S"weights, costs = sgd_optimization_mnist('final')"
tp105
a(g22
I317
g23
S'classifier = LogisticRegression(input=x, n_in=20*1, n_out=3)'
tp106
a(g25
I32
g26
S'self.p_y_given_x = T.nnet.softmax(T.dot(input, self.W) + self.b)'
tp107
aasbsg32
Nsg53
g1
(g67
g3
NtRp108
(dp109
g70
(lp110
g1
(g55
g3
NtRp111
(dp112
g9
S'auto_19'
p113
sg11
Nsg12
g1
(g13
g3
NtRp114
(dp115
g16
(lp116
(lp117
(g19
I758
g20
S"weights, costs = sgd_optimization_mnist('final')"
tp118
a(g22
I311
g23
S"x = T.matrix('x')  # data, presented as rasterized images"
tp119
aasbsg32
S'x'
sg53
Nsg42
g1
(g43
g3
NtRp120
(dp121
g46
(I00
I00
tp122
sg48
S'float64'
p123
sg50
g39
sg51
I00
sg32
Nsbsbag1
(g6
g3
NtRp124
(dp125
g9
S'auto_21'
p126
sg11
Nsg12
g1
(g13
g3
NtRp127
(dp128
g16
(lp129
(lp130
(g19
I758
g20
S"weights, costs = sgd_optimization_mnist('final')"
tp131
a(g22
I317
g23
S'classifier = LogisticRegression(input=x, n_in=20*1, n_out=3)'
tp132
a(g25
I23
g26
S"), name='W', borrow=True)"
tp133
aasbsg28
g1
(g29
g3
NtRp134
(dp135
g32
S'W'
sg33
(lp136
g35
(g36
(I0
tS'b'
tRp137
(I1
(I20
I3
tg39
I00
S'yv\xe9\xcf\xae\x0e\xd1\xbf\xcd\xb9|t\x8a\xdd\xbc?1\x90\x94e\x98\xae\xc3?3\xd9]\x89?h\xc0\xbfY\x1fT\xf7\xa6\xd9\xac?\xa2\xa2\x11\x97\xabc\xb2?v\x9av\x11\xceH\xd6?\xb0W\xdb\xe1Z\xf7\xb6\xbf\x95\xc4\xffX\xf7\x8a\xd0\xbf\xff\xc0 \xd5i\x11\xac\xbfL\np\x95\xdd\xf4\x9a\xbf\x17c\xecO\xec\xc5\xb4?\n;}\x82\x0f\n\xc3?m\x95\x03\x866\xca\xaa?E \xfe#\x9d\xbc\xc9\xbf\x80\xbd\xc51\xc1\x00\xc1?a\x1bO\xba#:\xaf\xbfH\xedc\x86pd\xb2\xbf\x80\xbd\xc51\xc1\x00\xc1\xbfa\x1bO\xba#:\xaf?H\xedc\x86pd\xb2?\xb4\x04@\xf6E=\xe5\xbf\xe6F Z\x99\x10\xe5\xbf\xc4%0\xa8\xef&\xf5?\xd3m\xf0Yq\xcd\xef?m\x9b\xf6\xf0_\x8b\xeb\xbf\x89I\xe7\xa3E\x08\xc1\xbfw[\x8b\xaau\x9a\xc2\xbf\xca\xfa\xe1\x9a\xcc\xa9\xca\xbfE\xab\xb6"!\xa2\xd6?\xf3\x97\xd5d\xa0u\xb4\xbfh\x07E\xe4\x86\xff\x9d\xbf\xe6\xd9\xe6\x1d\x82\xf5\xbb?\x07\x9d\xc5Q\xc1\r\xe6?\xba\xad\xc9&f\xfe\xd8\xbfk\x8c\xc1|\x1c\x1d\xd3\xbf\xa4uX\xac\x83C\xcb\xbfi\xdft8\xa41\x01\xc0\xe9f:s\xdc\xe5\x02@\x89\t>\x02\x1e\xe4\xf2\xbfxsJ\xbc]Q\xe3?\xa9\x9f1H\xdev\xe2?\x84\x00\xf4sp.\xef?\r\x1b`.\x96G\xe5\xbf\x18\xcb\'\x8b\xb4\xcd\xd3\xbf\x01N\xf2\xa3<\xd2\xc9\xbf\xc6\x0f<\x0e\xd7\x99\x99?\xf6\xcb*\xc2\x01\x9f\xc6?\x00\x00\x00\x00\x00\x00\x00\x00\x00\x00\x00\x00\x00\x00\x00\x00\x00\x00\x00\x00\x00\x00\x00\x00t\x948\xd5m\xc8\xe0\xbf\x8c3C\xc1\x89\xdf\xc8?\xf3\x8e\xcf\xc9\x16!\xd5?V\xe98\x98\x1fQ\xc8?\x0e\xf0I<\xc4\xc5\xc8?\xb6lA\xeaq\x8b\xd8\xbf\xa8\xac2\xbfRP\xfb?c\xe4u\x82.h\xf1\xbf\xb7\x90yyH\xd0\xe3\xbf'
tbasg40
I00
sg41
I00
sg42
g1
(g43
g3
NtRp138
(dp139
g46
(I00
I00
tp140
sg48
S'float64'
p141
sg50
g39
sg51
I00
sg32
Nsbsg52
Nsbsg32
S'W'
sg53
Nsg42
g138
sbasg12
g1
(g13
g3
NtRp142
sS'outputs'
p143
(lp144
g98
asS'op'
p145
g1
(ctheano.tensor.basic
Dot
p146
g3
NtRp147
sbsg42
g1
(g43
g3
NtRp148
(dp149
g46
(I00
I00
tp150
sg48
S'float64'
p151
sg50
g39
sg51
I00
sg32
Nsbsbag1
(g55
g3
NtRp152
(dp153
g9
S'auto_27'
p154
sg11
I0
sg12
g1
(g13
g3
NtRp155
(dp156
g16
(lp157
(lp158
(g19
I758
g20
S"weights, costs = sgd_optimization_mnist('final')"
tp159
a(g22
I317
g23
S'classifier = LogisticRegression(input=x, n_in=20*1, n_out=3)'
tp160
a(g25
I32
g26
S'self.p_y_given_x = T.nnet.softmax(T.dot(input, self.W) + self.b)'
tp161
aasbsg32
Nsg53
g1
(g67
g3
NtRp162
(dp163
g70
(lp164
g7
asg12
g1
(g13
g3
NtRp165
sg143
(lp166
g152
asg145
g1
(ctheano.tensor.elemwise
DimShuffle
p167
g3
NtRp168
(dp169
S'input_broadcastable'
p170
g47
sS'shuffle'
p171
(lp172
I0
asS'augment'
p173
(lp174
I0
asS'drop'
p175
(lp176
sS'inplace'
p177
I01
sS'new_order'
p178
(S'x'
I0
tp179
sS'view_map'
p180
(dp181
I0
(lp182
I0
assbsbsg42
g1
(g43
g3
NtRp183
(dp184
g46
(I01
I00
tp185
sg48
g49
sg50
g39
sg51
I00
sg32
Nsbsbasg12
g1
(g13
g3
NtRp186
sg143
(lp187
g85
asg145
g1
(ctheano.tensor.elemwise
Elemwise
p188
g3
NtRp189
(dp190
S'__module__'
p191
S'tensor'
p192
sS'scalar_op'
p193
g1
(ctheano.scalar.basic
Add
p194
g3
NtRp195
(dp196
S'output_types_preference'
p197
ctheano.scalar.basic
upcast_out
p198
sg32
S'add'
p199
sbsg32
S'Elemwise{add,no_inplace}'
p200
sS'destroy_map'
p201
(dp202
sS'nfunc_spec'
p203
(g199
I2
I1
tp204
sS'inplace_pattern'
p205
g1
(ctheano.misc.frozendict
frozendict
p206
g3
NtRp207
(dp208
S'_hash'
p209
I0
sS'_dict'
p210
(dp211
sbsS'openmp'
p212
I00
sS'__doc__'
p213
S"elementwise addition\n\n    Generalizes a scalar op to tensors.\n\n    All the inputs must have the same number of dimensions. When the\n    Op is performed, for each dimension, each input's size for that\n    dimension must be the same. As a special case, it can also be 1\n    but only if the input's broadcastable flag is True for that\n    dimension. In that case, the tensor is (virtually) replicated\n    along that dimension to match the size of the others.\n\n    The dtypes of the outputs mirror those of the scalar Op that is\n    being generalized to tensors. In particular, if the calculations\n    for an output are done inplace on an input, the output type must\n    be the same as the corresponding input type (see the doc of\n    scalar.ScalarOp to get help about controlling the output type)\n\n    Parameters\n    ----------\n    scalar_op\n        An instance of a subclass of scalar.ScalarOp which works uniquely\n        on scalars.\n    inplace_pattern\n        A dictionary that maps the index of an output to the\n        index of an input so the output is calculated inplace using\n        the input's storage. (Just like destroymap, but without the lists.)\n    nfunc_spec\n        Either None or a tuple of three elements,\n        (nfunc_name, nin, nout) such that getattr(numpy, nfunc_name)\n        implements this operation, takes nin inputs and nout outputs.\n        Note that nin cannot always be inferred from the scalar op's\n        own nin field because that value is sometimes 0 (meaning a\n        variable number of inputs), whereas the numpy function may\n        not have varargs.\n\n    Note\n    ----\n    | Elemwise(add) represents + on tensors (x + y)\n    | Elemwise(add, {0 : 0}) represents the += operation (x += y)\n    | Elemwise(add, {0 : 1}) represents += on the second argument (y += x)\n    | Elemwise(mul)(rand(10, 5), rand(1, 5)) the second input is completed along the first dimension to match the first input\n    | Elemwise(true_div)(rand(10, 5), rand(10, 1)) same but along the second dimension\n    | Elemwise(int_div)(rand(1, 5), rand(10, 1)) the output has size (10, 5)\n    | Elemwise(log)(rand(3, 4, 5))\n\n    "
p214
sbsbsg42
g1
(g43
g3
NtRp215
(dp216
g46
(I00
I00
tp217
sg48
g123
sg50
g39
sg51
I00
sg32
Nsbsbasg12
g1
(g13
g3
NtRp218
sg143
(lp219
g72
asg145
g1
(ctheano.tensor.nnet.nnet
Softmax
p220
g3
NtRp221
sbsg42
g215
sbasg12
g1
(g13
g3
NtRp222
sg143
(lp223
g1
(g55
g3
NtRp224
(dp225
g9
S'auto_30'
p226
sg11
I0
sg12
g1
(g13
g3
NtRp227
(dp228
g16
(lp229
(lp230
(g19
I758
g20
S"weights, costs = sgd_optimization_mnist('final')"
tp231
a(g22
I317
g23
S'classifier = LogisticRegression(input=x, n_in=20*1, n_out=3)'
tp232
a(g25
I34
g26
S'self.y_pred = T.argmax(self.p_y_given_x, axis=1)'
tp233
aasbsg32
S'max'
p234
sg53
g68
sg42
g1
(g43
g3
NtRp235
(dp236
g46
(I00
tp237
sg48
g123
sg50
g39
sg51
I00
sg32
Nsbsbag56
asg145
g1
(ctheano.tensor.basic
MaxAndArgmax
p238
g3
NtRp239
(dp240
S'axis'
p241
(I1
tp242
sbsbsg42
g1
(g43
g3
NtRp243
(dp244
g46
(I00
tp245
sg48
S'int64'
p246
sg50
g38
(S'i8'
I0
I1
tRp247
(I3
S'<'
NNNI-1
I-1
I0
tbsg51
I00
sg32
NsbsbsS'params'
p248
(lp249
g124
ag7
asS'W'
g124
sS'input'
p250
g111
sS'p_y_given_x'
p251
g72
sb.